target datalayout = "e-m:e-p270:32:32-p271:32:32-p272:64:64-i64:64-i128:128-f80:128-n8:16:32:64-S128"
target triple = "x86_64-pc-linux-gnu"

%struct.Amap_Cut_t_ = type { i32, [0 x i32] }
%struct.Amap_Obj_t_ = type { i64, i32, i32, i32, i32, [3 x i32], %union.anon, float, [2 x i32], %struct.Amap_Mat_t_ }
%union.anon = type { ptr }
%struct.Amap_Mat_t_ = type { ptr, ptr, float, float, float }

@.str.1 = private unnamed_addr constant [19 x i8] c"NODE %5d : Type = \00", align 1
@.str.2 = private unnamed_addr constant [4 x i8] c"AND\00", align 1
@.str.3 = private unnamed_addr constant [4 x i8] c"XOR\00", align 1
@.str.4 = private unnamed_addr constant [4 x i8] c"MUX\00", align 1
@.str.5 = private unnamed_addr constant [13 x i8] c"  Cuts = %d\0A\00", align 1
@.str.6 = private unnamed_addr constant [26 x i8] c"%3d :  Mat= %3d  Inv=%d  \00", align 1
@.str.7 = private unnamed_addr constant [6 x i8] c"%d%c \00", align 1
@.str.8 = private unnamed_addr constant [2 x i8] c"\0A\00", align 1

; Function Attrs: inlinehint nounwind uwtable
define internal ptr @Amap_ManCutNext(ptr noundef %0) #3 {
  %2 = alloca ptr, align 8
  store ptr %0, ptr %2, align 8, !tbaa !26
  %3 = load ptr, ptr %2, align 8, !tbaa !26
  %4 = load ptr, ptr %2, align 8, !tbaa !26
  %5 = load i32, ptr %4, align 4
  %6 = lshr i32 %5, 17
  %7 = sext i32 %6 to i64
  %8 = getelementptr inbounds i32, ptr %3, i64 %7
  %9 = getelementptr inbounds i32, ptr %8, i64 1
  ret ptr %9
}

; Function Attrs: inlinehint nounwind uwtable
define internal i32 @Abc_LitIsCompl(i32 noundef %0) #3 {
  %2 = alloca i32, align 4
  store i32 %0, ptr %2, align 4, !tbaa !8
  %3 = load i32, ptr %2, align 4, !tbaa !8
  %4 = and i32 %3, 1
  ret i32 %4
}

; Function Attrs: inlinehint nounwind uwtable
define internal i32 @Abc_Lit2Var(i32 noundef %0) #3 {
  %2 = alloca i32, align 4
  store i32 %0, ptr %2, align 4, !tbaa !8
  %3 = load i32, ptr %2, align 4, !tbaa !8
  %4 = ashr i32 %3, 1
  ret i32 %4
}

; Function Attrs: nounwind uwtable
define void @Amap_ManPrintCuts(ptr noundef %0) #0 {
  %2 = alloca ptr, align 8
  %3 = alloca ptr, align 8
  %4 = alloca i32, align 4
  %5 = alloca i32, align 4
  store ptr %0, ptr %2, align 8, !tbaa !25
  call void @llvm.lifetime.start.p0(i64 8, ptr %3) #10
  call void @llvm.lifetime.start.p0(i64 4, ptr %4) #10
  call void @llvm.lifetime.start.p0(i64 4, ptr %5) #10
  %6 = load ptr, ptr %2, align 8, !tbaa !25
  %7 = load i64, ptr %6, align 8
  %8 = lshr i64 %7, 3
  %9 = and i64 %8, 536870911
  %10 = trunc i64 %9 to i32
  %11 = call i32 (ptr, ...) @printf(ptr noundef @.str.1, i32 noundef %10)
  %12 = load ptr, ptr %2, align 8, !tbaa !25
  %13 = load i64, ptr %12, align 8
  %14 = and i64 %13, 7
  %15 = trunc i64 %14 to i32
  %16 = icmp eq i32 %15, 4
  br i1 %16, label %17, label %19

17:                                               ; preds = %1
  %18 = call i32 (ptr, ...) @printf(ptr noundef @.str.2)
  br label %37

19:                                               ; preds = %1
  %20 = load ptr, ptr %2, align 8, !tbaa !25
  %21 = load i64, ptr %20, align 8
  %22 = and i64 %21, 7
  %23 = trunc i64 %22 to i32
  %24 = icmp eq i32 %23, 5
  br i1 %24, label %25, label %27

25:                                               ; preds = %19
  %26 = call i32 (ptr, ...) @printf(ptr noundef @.str.3)
  br label %36

27:                                               ; preds = %19
  %28 = load ptr, ptr %2, align 8, !tbaa !25
  %29 = load i64, ptr %28, align 8
  %30 = and i64 %29, 7
  %31 = trunc i64 %30 to i32
  %32 = icmp eq i32 %31, 6
  br i1 %32, label %33, label %35

33:                                               ; preds = %27
  %34 = call i32 (ptr, ...) @printf(ptr noundef @.str.4)
  br label %35

35:                                               ; preds = %33, %27
  br label %36

36:                                               ; preds = %35, %25
  br label %37

37:                                               ; preds = %36, %17
  %38 = load ptr, ptr %2, align 8, !tbaa !25
  %39 = getelementptr inbounds nuw %struct.Amap_Obj_t_, ptr %38, i32 0, i32 2
  %40 = load i32, ptr %39, align 4, !tbaa !28
  %41 = call i32 (ptr, ...) @printf(ptr noundef @.str.5, i32 noundef %40)
  store i32 0, ptr %4, align 4, !tbaa !8
  %42 = load ptr, ptr %2, align 8, !tbaa !25
  %43 = getelementptr inbounds nuw %struct.Amap_Obj_t_, ptr %42, i32 0, i32 6
  %44 = load ptr, ptr %43, align 8, !tbaa !27
  store ptr %44, ptr %3, align 8, !tbaa !26
  br label %45

45:                                               ; preds = %90, %37
  %46 = load i32, ptr %4, align 4, !tbaa !8
  %47 = load ptr, ptr %2, align 8, !tbaa !25
  %48 = getelementptr inbounds nuw %struct.Amap_Obj_t_, ptr %47, i32 0, i32 2
  %49 = load i32, ptr %48, align 4, !tbaa !28
  %50 = icmp slt i32 %46, %49
  br i1 %50, label %51, label %95

51:                                               ; preds = %45
  %52 = load i32, ptr %4, align 4, !tbaa !8
  %53 = load ptr, ptr %3, align 8, !tbaa !26
  %54 = load i32, ptr %53, align 4
  %55 = and i32 %54, 65535
  %56 = load ptr, ptr %3, align 8, !tbaa !26
  %57 = load i32, ptr %56, align 4
  %58 = lshr i32 %57, 16
  %59 = and i32 %58, 1
  %60 = call i32 (ptr, ...) @printf(ptr noundef @.str.6, i32 noundef %52, i32 noundef %55, i32 noundef %59)
  store i32 0, ptr %5, align 4, !tbaa !8
  br label %61

61:                                               ; preds = %85, %51
  %62 = load i32, ptr %5, align 4, !tbaa !8
  %63 = load ptr, ptr %3, align 8, !tbaa !26
  %64 = load i32, ptr %63, align 4
  %65 = lshr i32 %64, 17
  %66 = icmp slt i32 %62, %65
  br i1 %66, label %67, label %88

67:                                               ; preds = %61
  %68 = load ptr, ptr %3, align 8, !tbaa !26
  %69 = getelementptr inbounds nuw %struct.Amap_Cut_t_, ptr %68, i32 0, i32 1
  %70 = load i32, ptr %5, align 4, !tbaa !8
  %71 = sext i32 %70 to i64
  %72 = getelementptr inbounds [0 x i32], ptr %69, i64 0, i64 %71
  %73 = load i32, ptr %72, align 4, !tbaa !8
  %74 = call i32 @Abc_Lit2Var(i32 noundef %73)
  %75 = load ptr, ptr %3, align 8, !tbaa !26
  %76 = getelementptr inbounds nuw %struct.Amap_Cut_t_, ptr %75, i32 0, i32 1
  %77 = load i32, ptr %5, align 4, !tbaa !8
  %78 = sext i32 %77 to i64
  %79 = getelementptr inbounds [0 x i32], ptr %76, i64 0, i64 %78
  %80 = load i32, ptr %79, align 4, !tbaa !8
  %81 = call i32 @Abc_LitIsCompl(i32 noundef %80)
  %82 = icmp ne i32 %81, 0
  %83 = select i1 %82, i32 45, i32 43
  %84 = call i32 (ptr, ...) @printf(ptr noundef @.str.7, i32 noundef %74, i32 noundef %83)
  br label %85

85:                                               ; preds = %67
  %86 = load i32, ptr %5, align 4, !tbaa !8
  %87 = add nsw i32 %86, 1
  store i32 %87, ptr %5, align 4, !tbaa !8
  br label %61, !llvm.loop !74

88:                                               ; preds = %61
  %89 = call i32 (ptr, ...) @printf(ptr noundef @.str.8)
  br label %90

90:                                               ; preds = %88
  %91 = load i32, ptr %4, align 4, !tbaa !8
  %92 = add nsw i32 %91, 1
  store i32 %92, ptr %4, align 4, !tbaa !8
  %93 = load ptr, ptr %3, align 8, !tbaa !26
  %94 = call ptr @Amap_ManCutNext(ptr noundef %93)
  store ptr %94, ptr %3, align 8, !tbaa !26
  br label %45, !llvm.loop !75

95:                                               ; preds = %45
  call void @llvm.lifetime.end.p0(i64 4, ptr %5) #10
  call void @llvm.lifetime.end.p0(i64 4, ptr %4) #10
  call void @llvm.lifetime.end.p0(i64 8, ptr %3) #10
  ret void
}