; Function Attrs: nofree nounwind uwtable
define void @Amap_ManPrintCuts(ptr noundef readonly captures(none) %0) local_unnamed_addr #0 {
  %2 = load i64, ptr %0, align 8
  %3 = trunc i64 %2 to i32
  %4 = lshr i32 %3, 3
  %5 = tail call i32 (ptr, ...) @printf(ptr noundef nonnull dereferenceable(1) @.str.1, i32 noundef %4)
  %6 = load i64, ptr %0, align 8
  %7 = trunc i64 %6 to i32
  %8 = and i32 %7, 7
  %switch.tableidx = add nsw i32 %8, -4
  %9 = icmp ult i32 %switch.tableidx, 3
  br i1 %9, label %switch.lookup, label %12

switch.lookup:                                    ; preds = %1
  %10 = zext nneg i32 %switch.tableidx to i64
  %switch.gep = getelementptr inbounds nuw [3 x ptr], ptr @switch.table.Amap_ManPrintCuts, i64 0, i64 %10
  %switch.load = load ptr, ptr %switch.gep, align 8
  %11 = tail call i32 (ptr, ...) @printf(ptr noundef nonnull dereferenceable(1) %switch.load)
  br label %12

12:                                               ; preds = %1, %switch.lookup
  %13 = getelementptr inbounds nuw i8, ptr %0, i64 12
  %14 = load i32, ptr %13, align 4, !tbaa !26
  %15 = tail call i32 (ptr, ...) @printf(ptr noundef nonnull dereferenceable(1) @.str.5, i32 noundef %14)
  %16 = load i32, ptr %13, align 4, !tbaa !26
  %17 = icmp sgt i32 %16, 0
  br i1 %17, label %.lr.ph26.preheader, label %._crit_edge27

.lr.ph26.preheader:                               ; preds = %12
  %18 = getelementptr inbounds nuw i8, ptr %0, i64 40
  %19 = load ptr, ptr %18, align 8, !tbaa !25
  br label %.lr.ph26

.lr.ph26:                                         ; preds = %.lr.ph26.preheader, %._crit_edge
  %.01924 = phi i32 [ %38, %._crit_edge ], [ 0, %.lr.ph26.preheader ]
  %.02023 = phi ptr [ %43, %._crit_edge ], [ %19, %.lr.ph26.preheader ]
  %20 = load i32, ptr %.02023, align 4
  %21 = and i32 %20, 65535
  %22 = lshr i32 %20, 16
  %23 = and i32 %22, 1
  %24 = tail call i32 (ptr, ...) @printf(ptr noundef nonnull dereferenceable(1) @.str.6, i32 noundef %.01924, i32 noundef %21, i32 noundef %23)
  %25 = load i32, ptr %.02023, align 4
  %.not28 = icmp ult i32 %25, 131072
  br i1 %.not28, label %._crit_edge, label %.lr.ph

.lr.ph:                                           ; preds = %.lr.ph26
  %26 = getelementptr inbounds nuw i8, ptr %.02023, i64 4
  br label %27

27:                                               ; preds = %.lr.ph, %27
  %indvars.iv = phi i64 [ 0, %.lr.ph ], [ %indvars.iv.next, %27 ]
  %28 = getelementptr inbounds nuw [0 x i32], ptr %26, i64 0, i64 %indvars.iv
  %29 = load i32, ptr %28, align 4, !tbaa !3
  %30 = ashr i32 %29, 1
  %31 = and i32 %29, 1
  %.not = icmp eq i32 %31, 0
  %32 = select i1 %.not, i32 43, i32 45
  %33 = tail call i32 (ptr, ...) @printf(ptr noundef nonnull dereferenceable(1) @.str.7, i32 noundef %30, i32 noundef %32)
  %indvars.iv.next = add nuw nsw i64 %indvars.iv, 1
  %34 = load i32, ptr %.02023, align 4
  %35 = lshr i32 %34, 17
  %36 = zext nneg i32 %35 to i64
  %37 = icmp samesign ult i64 %indvars.iv.next, %36
  br i1 %37, label %27, label %._crit_edge, !llvm.loop !68

._crit_edge:                                      ; preds = %27, %.lr.ph26
  %putchar = tail call i32 @putchar(i32 10)
  %38 = add nuw nsw i32 %.01924, 1
  %39 = load i32, ptr %.02023, align 4
  %40 = lshr i32 %39, 17
  %41 = zext nneg i32 %40 to i64
  %42 = getelementptr inbounds nuw i32, ptr %.02023, i64 %41
  %43 = getelementptr inbounds nuw i8, ptr %42, i64 4
  %44 = load i32, ptr %13, align 4, !tbaa !26
  %45 = icmp slt i32 %38, %44
  br i1 %45, label %.lr.ph26, label %._crit_edge27, !llvm.loop !69

._crit_edge27:                                    ; preds = %._crit_edge, %12
  ret void
}